target datalayout = "e-m:e-p270:32:32-p271:32:32-p272:64:64-i64:64-i128:128-f80:128-n8:16:32:64-S128"
target triple = "x86_64-pc-linux-gnu"

%"class.std::vector.11" = type { %"struct.std::_Vector_base.12" }
%"struct.std::_Vector_base.12" = type { %"struct.std::_Vector_base<double, std::allocator<double>>::_Vector_impl" }
%"struct.std::_Vector_base<double, std::allocator<double>>::_Vector_impl" = type { %"struct.std::_Vector_base<double, std::allocator<double>>::_Vector_impl_data" }
%"struct.std::_Vector_base<double, std::allocator<double>>::_Vector_impl_data" = type { ptr, ptr, ptr }
%"class.OpenColorIO_v2_5dev::L2LBaseRenderer" = type { %"class.OpenColorIO_v2_5dev::LogOpCPU", float, %"class.std::vector.11", %"class.std::vector.11", %"class.std::vector.11" }
%"class.OpenColorIO_v2_5dev::LogOpCPU" = type { %"class.OpenColorIO_v2_5dev::OpCPU" }
%"class.OpenColorIO_v2_5dev::OpCPU" = type { ptr }
%"class.OpenColorIO_v2_5dev::CameraL2LBaseRenderer" = type { %"class.OpenColorIO_v2_5dev::L2LBaseRenderer", [3 x float], [3 x float], [3 x float], float }
%"class.OpenColorIO_v2_5dev::CameraLog2LinRenderer" = type { %"class.OpenColorIO_v2_5dev::CameraL2LBaseRenderer", [3 x float], [3 x float], [3 x float], [3 x float], [3 x float], [3 x float] }

; Function Attrs: mustprogress nounwind uwtable
define linkonce_odr noundef float @_ZSt4exp2f(float noundef %0) #6 comdat {
  %2 = alloca float, align 4
  store float %0, ptr %2, align 4, !tbaa !14
  %3 = load float, ptr %2, align 4, !tbaa !14
  %4 = call float @exp2f(float noundef %3) #3, !tbaa !141
  ret float %4
}

; Function Attrs: mustprogress uwtable
define hidden void @_ZNK19OpenColorIO_v2_5dev21CameraLog2LinRenderer5applyEPKvPvl(ptr noundef nonnull align 8 dereferenceable(200) %0, ptr noundef %1, ptr noundef %2, i64 noundef %3) unnamed_addr #4 align 2 {
  %5 = alloca ptr, align 8
  %6 = alloca ptr, align 8
  %7 = alloca ptr, align 8
  %8 = alloca i64, align 8
  %9 = alloca ptr, align 8
  %10 = alloca ptr, align 8
  %11 = alloca i64, align 8
  %12 = alloca i32, align 4
  %13 = alloca float, align 4
  %14 = alloca i32, align 4
  store ptr %0, ptr %5, align 8, !tbaa !158
  store ptr %1, ptr %6, align 8, !tbaa !124
  store ptr %2, ptr %7, align 8, !tbaa !124
  store i64 %3, ptr %8, align 8, !tbaa !115
  %15 = load ptr, ptr %5, align 8
  call void @llvm.lifetime.start.p0(i64 8, ptr %9) #3
  %16 = load ptr, ptr %6, align 8, !tbaa !124
  store ptr %16, ptr %9, align 8, !tbaa !47
  call void @llvm.lifetime.start.p0(i64 8, ptr %10) #3
  %17 = load ptr, ptr %7, align 8, !tbaa !124
  store ptr %17, ptr %10, align 8, !tbaa !47
  call void @llvm.lifetime.start.p0(i64 8, ptr %11) #3
  store i64 0, ptr %11, align 8, !tbaa !115
  br label %18

18:                                               ; preds = %130, %4
  %19 = load i64, ptr %11, align 8, !tbaa !115
  %20 = load i64, ptr %8, align 8, !tbaa !115
  %21 = icmp slt i64 %19, %20
  br i1 %21, label %23, label %22

22:                                               ; preds = %18
  store i32 2, ptr %12, align 4
  call void @llvm.lifetime.end.p0(i64 8, ptr %11) #3
  br label %133

23:                                               ; preds = %18
  call void @llvm.lifetime.start.p0(i64 4, ptr %13) #3
  %24 = load ptr, ptr %9, align 8, !tbaa !47
  %25 = getelementptr inbounds float, ptr %24, i64 3
  %26 = load float, ptr %25, align 4, !tbaa !14
  store float %26, ptr %13, align 4, !tbaa !14
  call void @llvm.lifetime.start.p0(i64 4, ptr %14) #3
  store i32 0, ptr %14, align 4, !tbaa !141
  br label %27

27:                                               ; preds = %119, %23
  %28 = load i32, ptr %14, align 4, !tbaa !141
  %29 = icmp slt i32 %28, 3
  br i1 %29, label %31, label %30

30:                                               ; preds = %27
  store i32 5, ptr %12, align 4
  call void @llvm.lifetime.end.p0(i64 4, ptr %14) #3
  br label %122

31:                                               ; preds = %27
  %32 = load ptr, ptr %9, align 8, !tbaa !47
  %33 = load i32, ptr %14, align 4, !tbaa !141
  %34 = sext i32 %33 to i64
  %35 = getelementptr inbounds float, ptr %32, i64 %34
  %36 = load float, ptr %35, align 4, !tbaa !14
  %37 = getelementptr inbounds nuw %"class.OpenColorIO_v2_5dev::CameraL2LBaseRenderer", ptr %15, i32 0, i32 1
  %38 = load i32, ptr %14, align 4, !tbaa !141
  %39 = sext i32 %38 to i64
  %40 = getelementptr inbounds [3 x float], ptr %37, i64 0, i64 %39
  %41 = load float, ptr %40, align 4, !tbaa !14
  %42 = fcmp olt float %36, %41
  br i1 %42, label %43, label %65

43:                                               ; preds = %31
  %44 = getelementptr inbounds nuw %"class.OpenColorIO_v2_5dev::CameraLog2LinRenderer", ptr %15, i32 0, i32 5
  %45 = load i32, ptr %14, align 4, !tbaa !141
  %46 = sext i32 %45 to i64
  %47 = getelementptr inbounds [3 x float], ptr %44, i64 0, i64 %46
  %48 = load float, ptr %47, align 4, !tbaa !14
  %49 = load ptr, ptr %9, align 8, !tbaa !47
  %50 = load i32, ptr %14, align 4, !tbaa !141
  %51 = sext i32 %50 to i64
  %52 = getelementptr inbounds float, ptr %49, i64 %51
  %53 = load float, ptr %52, align 4, !tbaa !14
  %54 = getelementptr inbounds nuw %"class.OpenColorIO_v2_5dev::CameraLog2LinRenderer", ptr %15, i32 0, i32 6
  %55 = load i32, ptr %14, align 4, !tbaa !141
  %56 = sext i32 %55 to i64
  %57 = getelementptr inbounds [3 x float], ptr %54, i64 0, i64 %56
  %58 = load float, ptr %57, align 4, !tbaa !14
  %59 = fadd float %53, %58
  %60 = fmul float %48, %59
  %61 = load ptr, ptr %10, align 8, !tbaa !47
  %62 = load i32, ptr %14, align 4, !tbaa !141
  %63 = sext i32 %62 to i64
  %64 = getelementptr inbounds float, ptr %61, i64 %63
  store float %60, ptr %64, align 4, !tbaa !14
  br label %118

65:                                               ; preds = %31
  %66 = load ptr, ptr %9, align 8, !tbaa !47
  %67 = load i32, ptr %14, align 4, !tbaa !141
  %68 = sext i32 %67 to i64
  %69 = getelementptr inbounds float, ptr %66, i64 %68
  %70 = load float, ptr %69, align 4, !tbaa !14
  %71 = getelementptr inbounds nuw %"class.OpenColorIO_v2_5dev::CameraLog2LinRenderer", ptr %15, i32 0, i32 2
  %72 = load i32, ptr %14, align 4, !tbaa !141
  %73 = sext i32 %72 to i64
  %74 = getelementptr inbounds [3 x float], ptr %71, i64 0, i64 %73
  %75 = load float, ptr %74, align 4, !tbaa !14
  %76 = fadd float %70, %75
  %77 = getelementptr inbounds nuw %"class.OpenColorIO_v2_5dev::CameraLog2LinRenderer", ptr %15, i32 0, i32 1
  %78 = load i32, ptr %14, align 4, !tbaa !141
  %79 = sext i32 %78 to i64
  %80 = getelementptr inbounds [3 x float], ptr %77, i64 0, i64 %79
  %81 = load float, ptr %80, align 4, !tbaa !14
  %82 = fmul float %76, %81
  %83 = load ptr, ptr %10, align 8, !tbaa !47
  %84 = load i32, ptr %14, align 4, !tbaa !141
  %85 = sext i32 %84 to i64
  %86 = getelementptr inbounds float, ptr %83, i64 %85
  store float %82, ptr %86, align 4, !tbaa !14
  %87 = load ptr, ptr %10, align 8, !tbaa !47
  %88 = load i32, ptr %14, align 4, !tbaa !141
  %89 = sext i32 %88 to i64
  %90 = getelementptr inbounds float, ptr %87, i64 %89
  %91 = load float, ptr %90, align 4, !tbaa !14
  %92 = call noundef float @_ZSt4exp2f(float noundef %91)
  %93 = load ptr, ptr %10, align 8, !tbaa !47
  %94 = load i32, ptr %14, align 4, !tbaa !141
  %95 = sext i32 %94 to i64
  %96 = getelementptr inbounds float, ptr %93, i64 %95
  store float %92, ptr %96, align 4, !tbaa !14
  %97 = load ptr, ptr %10, align 8, !tbaa !47
  %98 = load i32, ptr %14, align 4, !tbaa !141
  %99 = sext i32 %98 to i64
  %100 = getelementptr inbounds float, ptr %97, i64 %99
  %101 = load float, ptr %100, align 4, !tbaa !14
  %102 = getelementptr inbounds nuw %"class.OpenColorIO_v2_5dev::CameraLog2LinRenderer", ptr %15, i32 0, i32 3
  %103 = load i32, ptr %14, align 4, !tbaa !141
  %104 = sext i32 %103 to i64
  %105 = getelementptr inbounds [3 x float], ptr %102, i64 0, i64 %104
  %106 = load float, ptr %105, align 4, !tbaa !14
  %107 = fadd float %101, %106
  %108 = getelementptr inbounds nuw %"class.OpenColorIO_v2_5dev::CameraLog2LinRenderer", ptr %15, i32 0, i32 4
  %109 = load i32, ptr %14, align 4, !tbaa !141
  %110 = sext i32 %109 to i64
  %111 = getelementptr inbounds [3 x float], ptr %108, i64 0, i64 %110
  %112 = load float, ptr %111, align 4, !tbaa !14
  %113 = fmul float %107, %112
  %114 = load ptr, ptr %10, align 8, !tbaa !47
  %115 = load i32, ptr %14, align 4, !tbaa !141
  %116 = sext i32 %115 to i64
  %117 = getelementptr inbounds float, ptr %114, i64 %116
  store float %113, ptr %117, align 4, !tbaa !14
  br label %118

118:                                              ; preds = %65, %43
  br label %119

119:                                              ; preds = %118
  %120 = load i32, ptr %14, align 4, !tbaa !141
  %121 = add nsw i32 %120, 1
  store i32 %121, ptr %14, align 4, !tbaa !141
  br label %27, !llvm.loop !160

122:                                              ; preds = %30
  %123 = load float, ptr %13, align 4, !tbaa !14
  %124 = load ptr, ptr %10, align 8, !tbaa !47
  %125 = getelementptr inbounds float, ptr %124, i64 3
  store float %123, ptr %125, align 4, !tbaa !14
  %126 = load ptr, ptr %10, align 8, !tbaa !47
  %127 = getelementptr inbounds float, ptr %126, i64 4
  store ptr %127, ptr %10, align 8, !tbaa !47
  %128 = load ptr, ptr %9, align 8, !tbaa !47
  %129 = getelementptr inbounds float, ptr %128, i64 4
  store ptr %129, ptr %9, align 8, !tbaa !47
  call void @llvm.lifetime.end.p0(i64 4, ptr %13) #3
  br label %130

130:                                              ; preds = %122
  %131 = load i64, ptr %11, align 8, !tbaa !115
  %132 = add nsw i64 %131, 1
  store i64 %132, ptr %11, align 8, !tbaa !115
  br label %18, !llvm.loop !161

133:                                              ; preds = %22
  call void @llvm.lifetime.end.p0(i64 8, ptr %10) #3
  call void @llvm.lifetime.end.p0(i64 8, ptr %9) #3
  ret void
}