; Function Attrs: mustprogress nofree nounwind memory(write, argmem: readwrite) uwtable
define hidden void @_ZNK19OpenColorIO_v2_5dev21CameraLog2LinRenderer5applyEPKvPvl(ptr noundef nonnull readonly align 8 captures(none) dereferenceable(200) %0, ptr noundef readonly captures(none) %1, ptr noundef writeonly captures(none) %2, i64 noundef %3) unnamed_addr #11 align 2 {
  %5 = icmp sgt i64 %3, 0
  br i1 %5, label %.lr.ph, label %._crit_edge

.lr.ph:                                           ; preds = %4
  %6 = getelementptr inbounds nuw i8, ptr %0, i64 88
  %7 = getelementptr inbounds nuw i8, ptr %0, i64 140
  %8 = getelementptr inbounds nuw i8, ptr %0, i64 128
  %9 = getelementptr inbounds nuw i8, ptr %0, i64 152
  %10 = getelementptr inbounds nuw i8, ptr %0, i64 164
  %11 = getelementptr inbounds nuw i8, ptr %0, i64 176
  %12 = getelementptr inbounds nuw i8, ptr %0, i64 188
  br label %13

._crit_edge:                                      ; preds = %16, %4
  ret void

13:                                               ; preds = %.lr.ph, %16
  %.03744 = phi ptr [ %1, %.lr.ph ], [ %19, %16 ]
  %.03843 = phi i64 [ 0, %.lr.ph ], [ %20, %16 ]
  %.03942 = phi ptr [ %2, %.lr.ph ], [ %18, %16 ]
  %14 = getelementptr inbounds nuw i8, ptr %.03744, i64 12
  %15 = load float, ptr %14, align 4, !tbaa !111
  br label %21

16:                                               ; preds = %49
  %17 = getelementptr inbounds nuw i8, ptr %.03942, i64 12
  store float %15, ptr %17, align 4, !tbaa !111
  %18 = getelementptr inbounds nuw i8, ptr %.03942, i64 16
  %19 = getelementptr inbounds nuw i8, ptr %.03744, i64 16
  %20 = add nuw nsw i64 %.03843, 1
  %exitcond46.not = icmp eq i64 %20, %3
  br i1 %exitcond46.not, label %._crit_edge, label %13, !llvm.loop !126

21:                                               ; preds = %13, %49
  %indvars.iv = phi i64 [ 0, %13 ], [ %indvars.iv.next, %49 ]
  %22 = getelementptr inbounds nuw float, ptr %.03744, i64 %indvars.iv
  %23 = load float, ptr %22, align 4, !tbaa !111
  %24 = getelementptr inbounds nuw [3 x float], ptr %6, i64 0, i64 %indvars.iv
  %25 = load float, ptr %24, align 4, !tbaa !111
  %26 = fcmp olt float %23, %25
  %27 = getelementptr inbounds nuw float, ptr %.03942, i64 %indvars.iv
  br i1 %26, label %28, label %35

28:                                               ; preds = %21
  %29 = getelementptr inbounds nuw [3 x float], ptr %11, i64 0, i64 %indvars.iv
  %30 = load float, ptr %29, align 4, !tbaa !111
  %31 = getelementptr inbounds nuw [3 x float], ptr %12, i64 0, i64 %indvars.iv
  %32 = load float, ptr %31, align 4, !tbaa !111
  %33 = fadd float %23, %32
  %34 = fmul float %30, %33
  br label %49

35:                                               ; preds = %21
  %36 = getelementptr inbounds nuw [3 x float], ptr %7, i64 0, i64 %indvars.iv
  %37 = load float, ptr %36, align 4, !tbaa !111
  %38 = fadd float %23, %37
  %39 = getelementptr inbounds nuw [3 x float], ptr %8, i64 0, i64 %indvars.iv
  %40 = load float, ptr %39, align 4, !tbaa !111
  %41 = fmul float %38, %40
  %42 = tail call noundef float @exp2f(float noundef %41) #26, !tbaa !112
  store float %42, ptr %27, align 4, !tbaa !111
  %43 = getelementptr inbounds nuw [3 x float], ptr %9, i64 0, i64 %indvars.iv
  %44 = load float, ptr %43, align 4, !tbaa !111
  %45 = fadd float %42, %44
  %46 = getelementptr inbounds nuw [3 x float], ptr %10, i64 0, i64 %indvars.iv
  %47 = load float, ptr %46, align 4, !tbaa !111
  %48 = fmul float %45, %47
  br label %49

49:                                               ; preds = %28, %35
  %.sink = phi float [ %34, %28 ], [ %48, %35 ]
  store float %.sink, ptr %27, align 4, !tbaa !111
  %indvars.iv.next = add nuw nsw i64 %indvars.iv, 1
  %exitcond.not = icmp eq i64 %indvars.iv.next, 3
  br i1 %exitcond.not, label %16, label %21, !llvm.loop !127
}